target datalayout = "e-m:e-p270:32:32-p271:32:32-p272:64:64-i64:64-i128:128-f80:128-n8:16:32:64-S128"
target triple = "x86_64-pc-linux-gnu"

%struct.Vec_Wrd_t_ = type { i32, i32, ptr }

; Function Attrs: inlinehint nounwind uwtable
define internal ptr @Vec_WrdArray(ptr noundef %0) #1 {
  %2 = alloca ptr, align 8
  store ptr %0, ptr %2, align 8, !tbaa !136
  %3 = load ptr, ptr %2, align 8, !tbaa !136
  %4 = getelementptr inbounds nuw %struct.Vec_Wrd_t_, ptr %3, i32 0, i32 2
  %5 = load ptr, ptr %4, align 8, !tbaa !146
  ret ptr %5
}

; Function Attrs: inlinehint nounwind uwtable
define internal i64 @Vec_WrdEntry(ptr noundef %0, i32 noundef %1) #1 {
  %3 = alloca ptr, align 8
  %4 = alloca i32, align 4
  store ptr %0, ptr %3, align 8, !tbaa !136
  store i32 %1, ptr %4, align 4, !tbaa !12
  %5 = load ptr, ptr %3, align 8, !tbaa !136
  %6 = getelementptr inbounds nuw %struct.Vec_Wrd_t_, ptr %5, i32 0, i32 2
  %7 = load ptr, ptr %6, align 8, !tbaa !146
  %8 = load i32, ptr %4, align 4, !tbaa !12
  %9 = sext i32 %8 to i64
  %10 = getelementptr inbounds i64, ptr %7, i64 %9
  %11 = load i64, ptr %10, align 8, !tbaa !139
  ret i64 %11
}

; Function Attrs: inlinehint nounwind uwtable
define internal ptr @Vec_WrdAlloc(i32 noundef %0) #1 {
  %2 = alloca i32, align 4
  %3 = alloca ptr, align 8
  store i32 %0, ptr %2, align 4, !tbaa !12
  call void @llvm.lifetime.start.p0(i64 8, ptr %3) #10
  %4 = call noalias ptr @malloc(i64 noundef 16) #11
  store ptr %4, ptr %3, align 8, !tbaa !136
  %5 = load i32, ptr %2, align 4, !tbaa !12
  %6 = icmp sgt i32 %5, 0
  br i1 %6, label %7, label %11

7:                                                ; preds = %1
  %8 = load i32, ptr %2, align 4, !tbaa !12
  %9 = icmp slt i32 %8, 16
  br i1 %9, label %10, label %11

10:                                               ; preds = %7
  store i32 16, ptr %2, align 4, !tbaa !12
  br label %11

11:                                               ; preds = %10, %7, %1
  %12 = load ptr, ptr %3, align 8, !tbaa !136
  %13 = getelementptr inbounds nuw %struct.Vec_Wrd_t_, ptr %12, i32 0, i32 1
  store i32 0, ptr %13, align 4, !tbaa !142
  %14 = load i32, ptr %2, align 4, !tbaa !12
  %15 = load ptr, ptr %3, align 8, !tbaa !136
  %16 = getelementptr inbounds nuw %struct.Vec_Wrd_t_, ptr %15, i32 0, i32 0
  store i32 %14, ptr %16, align 8, !tbaa !145
  %17 = load ptr, ptr %3, align 8, !tbaa !136
  %18 = getelementptr inbounds nuw %struct.Vec_Wrd_t_, ptr %17, i32 0, i32 0
  %19 = load i32, ptr %18, align 8, !tbaa !145
  %20 = icmp ne i32 %19, 0
  br i1 %20, label %21, label %28

21:                                               ; preds = %11
  %22 = load ptr, ptr %3, align 8, !tbaa !136
  %23 = getelementptr inbounds nuw %struct.Vec_Wrd_t_, ptr %22, i32 0, i32 0
  %24 = load i32, ptr %23, align 8, !tbaa !145
  %25 = sext i32 %24 to i64
  %26 = mul i64 8, %25
  %27 = call noalias ptr @malloc(i64 noundef %26) #11
  br label %29

28:                                               ; preds = %11
  br label %29

29:                                               ; preds = %28, %21
  %30 = phi ptr [ %27, %21 ], [ null, %28 ]
  %31 = load ptr, ptr %3, align 8, !tbaa !136
  %32 = getelementptr inbounds nuw %struct.Vec_Wrd_t_, ptr %31, i32 0, i32 2
  store ptr %30, ptr %32, align 8, !tbaa !146
  %33 = load ptr, ptr %3, align 8, !tbaa !136
  call void @llvm.lifetime.end.p0(i64 8, ptr %3) #10
  ret ptr %33
}

; Function Attrs: nounwind uwtable
define void @Gia_ManMulFindSetArg(ptr noundef %0, i32 noundef %1, i32 noundef %2) #0 {
  %4 = alloca ptr, align 8
  %5 = alloca i32, align 4
  %6 = alloca i32, align 4
  %7 = alloca i32, align 4
  %8 = alloca ptr, align 8
  store ptr %0, ptr %4, align 8, !tbaa !136
  store i32 %1, ptr %5, align 4, !tbaa !12
  store i32 %2, ptr %6, align 4, !tbaa !12
  call void @llvm.lifetime.start.p0(i64 4, ptr %7) #10
  call void @llvm.lifetime.start.p0(i64 8, ptr %8) #10
  %9 = load ptr, ptr %4, align 8, !tbaa !136
  %10 = call ptr @Vec_WrdArray(ptr noundef %9)
  store ptr %10, ptr %8, align 8, !tbaa !148
  store i32 0, ptr %7, align 4, !tbaa !12
  br label %11

11:                                               ; preds = %33, %3
  %12 = load i32, ptr %7, align 4, !tbaa !12
  %13 = load ptr, ptr %4, align 8, !tbaa !136
  %14 = call i32 @Vec_WrdSize(ptr noundef %13)
  %15 = icmp slt i32 %12, %14
  br i1 %15, label %16, label %36

16:                                               ; preds = %11
  %17 = load i32, ptr %6, align 4, !tbaa !12
  %18 = load i32, ptr %7, align 4, !tbaa !12
  %19 = ashr i32 %17, %18
  %20 = and i32 %19, 1
  %21 = icmp ne i32 %20, 0
  br i1 %21, label %22, label %32

22:                                               ; preds = %16
  %23 = load i32, ptr %5, align 4, !tbaa !12
  %24 = zext i32 %23 to i64
  %25 = shl i64 1, %24
  %26 = load ptr, ptr %8, align 8, !tbaa !148
  %27 = load i32, ptr %7, align 4, !tbaa !12
  %28 = sext i32 %27 to i64
  %29 = getelementptr inbounds i64, ptr %26, i64 %28
  %30 = load i64, ptr %29, align 8, !tbaa !139
  %31 = or i64 %30, %25
  store i64 %31, ptr %29, align 8, !tbaa !139
  br label %32

32:                                               ; preds = %22, %16
  br label %33

33:                                               ; preds = %32
  %34 = load i32, ptr %7, align 4, !tbaa !12
  %35 = add nsw i32 %34, 1
  store i32 %35, ptr %7, align 4, !tbaa !12
  br label %11, !llvm.loop !149

36:                                               ; preds = %11
  call void @llvm.lifetime.end.p0(i64 8, ptr %8) #10
  call void @llvm.lifetime.end.p0(i64 4, ptr %7) #10
  ret void
}

; Function Attrs: nounwind uwtable
define i32 @Gia_ManMulFindGetArg(ptr noundef %0, i32 noundef %1, i32 noundef %2) #0 {
  %4 = alloca ptr, align 8
  %5 = alloca i32, align 4
  %6 = alloca i32, align 4
  %7 = alloca i32, align 4
  %8 = alloca i32, align 4
  %9 = alloca i64, align 8
  store ptr %0, ptr %4, align 8, !tbaa !136
  store i32 %1, ptr %5, align 4, !tbaa !12
  store i32 %2, ptr %6, align 4, !tbaa !12
  call void @llvm.lifetime.start.p0(i64 4, ptr %7) #10
  call void @llvm.lifetime.start.p0(i64 4, ptr %8) #10
  store i32 0, ptr %8, align 4, !tbaa !12
  call void @llvm.lifetime.start.p0(i64 8, ptr %9) #10
  store i64 0, ptr %9, align 8, !tbaa !139
  store i32 0, ptr %7, align 4, !tbaa !12
  br label %10

10:                                               ; preds = %34, %3
  %11 = load i32, ptr %7, align 4, !tbaa !12
  %12 = load ptr, ptr %4, align 8, !tbaa !136
  %13 = call i32 @Vec_WrdSize(ptr noundef %12)
  %14 = icmp slt i32 %11, %13
  br i1 %14, label %15, label %19

15:                                               ; preds = %10
  %16 = load ptr, ptr %4, align 8, !tbaa !136
  %17 = load i32, ptr %7, align 4, !tbaa !12
  %18 = call i64 @Vec_WrdEntry(ptr noundef %16, i32 noundef %17)
  store i64 %18, ptr %9, align 8, !tbaa !139
  br label %19

19:                                               ; preds = %15, %10
  %20 = phi i1 [ false, %10 ], [ true, %15 ]
  br i1 %20, label %21, label %37

21:                                               ; preds = %19
  %22 = load i64, ptr %9, align 8, !tbaa !139
  %23 = load i32, ptr %5, align 4, !tbaa !12
  %24 = zext i32 %23 to i64
  %25 = lshr i64 %22, %24
  %26 = and i64 %25, 1
  %27 = icmp ne i64 %26, 0
  br i1 %27, label %28, label %33

28:                                               ; preds = %21
  %29 = load i32, ptr %7, align 4, !tbaa !12
  %30 = shl i32 1, %29
  %31 = load i32, ptr %8, align 4, !tbaa !12
  %32 = or i32 %31, %30
  store i32 %32, ptr %8, align 4, !tbaa !12
  br label %33

33:                                               ; preds = %28, %21
  br label %34

34:                                               ; preds = %33
  %35 = load i32, ptr %7, align 4, !tbaa !12
  %36 = add nsw i32 %35, 1
  store i32 %36, ptr %7, align 4, !tbaa !12
  br label %10, !llvm.loop !147

37:                                               ; preds = %19
  %38 = load i32, ptr %6, align 4, !tbaa !12
  %39 = icmp ne i32 %38, 0
  br i1 %39, label %40, label %53

40:                                               ; preds = %37
  %41 = load i64, ptr %9, align 8, !tbaa !139
  %42 = load i32, ptr %5, align 4, !tbaa !12
  %43 = zext i32 %42 to i64
  %44 = lshr i64 %41, %43
  %45 = and i64 %44, 1
  %46 = icmp ne i64 %45, 0
  br i1 %46, label %47, label %53

47:                                               ; preds = %40
  %48 = load ptr, ptr %4, align 8, !tbaa !136
  %49 = call i32 @Vec_WrdSize(ptr noundef %48)
  %50 = shl i32 -1, %49
  %51 = load i32, ptr %8, align 4, !tbaa !12
  %52 = or i32 %51, %50
  store i32 %52, ptr %8, align 4, !tbaa !12
  br label %53

53:                                               ; preds = %47, %40, %37
  %54 = load i32, ptr %8, align 4, !tbaa !12
  call void @llvm.lifetime.end.p0(i64 8, ptr %9) #10
  call void @llvm.lifetime.end.p0(i64 4, ptr %8) #10
  call void @llvm.lifetime.end.p0(i64 4, ptr %7) #10
  ret i32 %54
}

; Function Attrs: inlinehint nounwind uwtable
define internal ptr @Vec_WrdStart(i32 noundef %0) #1 {
  %2 = alloca i32, align 4
  %3 = alloca ptr, align 8
  store i32 %0, ptr %2, align 4, !tbaa !12
  call void @llvm.lifetime.start.p0(i64 8, ptr %3) #10
  %4 = load i32, ptr %2, align 4, !tbaa !12
  %5 = call ptr @Vec_WrdAlloc(i32 noundef %4)
  store ptr %5, ptr %3, align 8, !tbaa !136
  %6 = load i32, ptr %2, align 4, !tbaa !12
  %7 = load ptr, ptr %3, align 8, !tbaa !136
  %8 = getelementptr inbounds nuw %struct.Vec_Wrd_t_, ptr %7, i32 0, i32 1
  store i32 %6, ptr %8, align 4, !tbaa !142
  %9 = load ptr, ptr %3, align 8, !tbaa !136
  %10 = getelementptr inbounds nuw %struct.Vec_Wrd_t_, ptr %9, i32 0, i32 2
  %11 = load ptr, ptr %10, align 8, !tbaa !146
  %12 = load i32, ptr %2, align 4, !tbaa !12
  %13 = sext i32 %12 to i64
  %14 = mul i64 8, %13
  call void @llvm.memset.p0.i64(ptr align 8 %11, i8 0, i64 %14, i1 false)
  %15 = load ptr, ptr %3, align 8, !tbaa !136
  call void @llvm.lifetime.end.p0(i64 8, ptr %3) #10
  ret ptr %15
}

; Function Attrs: inlinehint nounwind uwtable
define internal i32 @Vec_WrdSize(ptr noundef %0) #1 {
  %2 = alloca ptr, align 8
  store ptr %0, ptr %2, align 8, !tbaa !136
  %3 = load ptr, ptr %2, align 8, !tbaa !136
  %4 = getelementptr inbounds nuw %struct.Vec_Wrd_t_, ptr %3, i32 0, i32 1
  %5 = load i32, ptr %4, align 4, !tbaa !142
  ret i32 %5
}

; Function Attrs: nounwind uwtable
define ptr @Gia_ManMulFindSim(ptr noundef %0, ptr noundef %1, i32 noundef %2) #0 {
  %4 = alloca ptr, align 8
  %5 = alloca ptr, align 8
  %6 = alloca i32, align 4
  %7 = alloca ptr, align 8
  %8 = alloca i32, align 4
  %9 = alloca i32, align 4
  %10 = alloca i32, align 4
  store ptr %0, ptr %4, align 8, !tbaa !136
  store ptr %1, ptr %5, align 8, !tbaa !136
  store i32 %2, ptr %6, align 4, !tbaa !12
  call void @llvm.lifetime.start.p0(i64 8, ptr %7) #10
  %11 = load ptr, ptr %4, align 8, !tbaa !136
  %12 = call i32 @Vec_WrdSize(ptr noundef %11)
  %13 = load ptr, ptr %5, align 8, !tbaa !136
  %14 = call i32 @Vec_WrdSize(ptr noundef %13)
  %15 = add nsw i32 %12, %14
  %16 = call ptr @Vec_WrdStart(i32 noundef %15)
  store ptr %16, ptr %7, align 8, !tbaa !136
  call void @llvm.lifetime.start.p0(i64 4, ptr %8) #10
  store i32 0, ptr %8, align 4, !tbaa !12
  br label %17

17:                                               ; preds = %35, %3
  %18 = load i32, ptr %8, align 4, !tbaa !12
  %19 = icmp slt i32 %18, 64
  br i1 %19, label %21, label %20

20:                                               ; preds = %17
  call void @llvm.lifetime.end.p0(i64 4, ptr %8) #10
  br label %38

21:                                               ; preds = %17
  call void @llvm.lifetime.start.p0(i64 4, ptr %9) #10
  %22 = load ptr, ptr %4, align 8, !tbaa !136
  %23 = load i32, ptr %8, align 4, !tbaa !12
  %24 = load i32, ptr %6, align 4, !tbaa !12
  %25 = call i32 @Gia_ManMulFindGetArg(ptr noundef %22, i32 noundef %23, i32 noundef %24)
  store i32 %25, ptr %9, align 4, !tbaa !12
  call void @llvm.lifetime.start.p0(i64 4, ptr %10) #10
  %26 = load ptr, ptr %5, align 8, !tbaa !136
  %27 = load i32, ptr %8, align 4, !tbaa !12
  %28 = load i32, ptr %6, align 4, !tbaa !12
  %29 = call i32 @Gia_ManMulFindGetArg(ptr noundef %26, i32 noundef %27, i32 noundef %28)
  store i32 %29, ptr %10, align 4, !tbaa !12
  %30 = load ptr, ptr %7, align 8, !tbaa !136
  %31 = load i32, ptr %8, align 4, !tbaa !12
  %32 = load i32, ptr %9, align 4, !tbaa !12
  %33 = load i32, ptr %10, align 4, !tbaa !12
  %34 = mul nsw i32 %32, %33
  call void @Gia_ManMulFindSetArg(ptr noundef %30, i32 noundef %31, i32 noundef %34)
  call void @llvm.lifetime.end.p0(i64 4, ptr %10) #10
  call void @llvm.lifetime.end.p0(i64 4, ptr %9) #10
  br label %35

35:                                               ; preds = %21
  %36 = load i32, ptr %8, align 4, !tbaa !12
  %37 = add nsw i32 %36, 1
  store i32 %37, ptr %8, align 4, !tbaa !12
  br label %17, !llvm.loop !150

38:                                               ; preds = %20
  %39 = load ptr, ptr %7, align 8, !tbaa !136
  call void @llvm.lifetime.end.p0(i64 8, ptr %7) #10
  ret ptr %39
}