; Function Attrs: nofree nounwind uwtable
define noalias noundef ptr @Gia_ManMulFindSim(ptr noundef readonly captures(none) %0, ptr noundef readonly captures(none) %1, i32 noundef %2) local_unnamed_addr #7 {
  %4 = getelementptr i8, ptr %0, i64 4
  %.val14 = load i32, ptr %4, align 4, !tbaa !133
  %5 = getelementptr i8, ptr %1, i64 4
  %.val = load i32, ptr %5, align 4, !tbaa !133
  %6 = add nsw i32 %.val, %.val14
  %7 = tail call noalias dereferenceable_or_null(16) ptr @malloc(i64 noundef 16) #21
  %8 = add i32 %6, -1
  %or.cond.i.i = icmp ult i32 %8, 15
  %spec.store.select.i.i = select i1 %or.cond.i.i, i32 16, i32 %6
  store i32 %spec.store.select.i.i, ptr %7, align 8, !tbaa !136
  %.not.i.i = icmp eq i32 %spec.store.select.i.i, 0
  br i1 %.not.i.i, label %Vec_WrdStart.exit, label %9

9:                                                ; preds = %3
  %10 = sext i32 %spec.store.select.i.i to i64
  %11 = shl nsw i64 %10, 3
  %12 = tail call noalias ptr @malloc(i64 noundef %11) #21
  br label %Vec_WrdStart.exit

Vec_WrdStart.exit:                                ; preds = %3, %9
  %13 = phi ptr [ %12, %9 ], [ null, %3 ]
  %14 = getelementptr inbounds nuw i8, ptr %7, i64 4
  %15 = getelementptr inbounds nuw i8, ptr %7, i64 8
  store ptr %13, ptr %15, align 8, !tbaa !137
  store i32 %6, ptr %14, align 4, !tbaa !133
  %16 = sext i32 %6 to i64
  %17 = shl nsw i64 %16, 3
  tail call void @llvm.memset.p0.i64(ptr align 8 %13, i8 0, i64 %17, i1 false)
  %18 = icmp sgt i32 %.val14, 0
  %.not.i = icmp eq i32 %2, 0
  %19 = icmp sgt i32 %.val, 0
  %20 = icmp sgt i32 %6, 0
  %21 = getelementptr i8, ptr %0, i64 8
  %wide.trip.count.i = zext nneg i32 %.val14 to i64
  %22 = shl nsw i32 -1, %.val14
  %23 = getelementptr i8, ptr %1, i64 8
  %wide.trip.count.i24 = zext nneg i32 %.val to i64
  %24 = shl nsw i32 -1, %.val
  %wide.trip.count.i34 = zext nneg i32 %6 to i64
  br i1 %20, label %Vec_WrdStart.exit.split.us, label %.split.us

Vec_WrdStart.exit.split.us:                       ; preds = %Vec_WrdStart.exit, %Gia_ManMulFindSetArg.exit.loopexit.us
  %indvars.iv = phi i64 [ %indvars.iv.next, %Gia_ManMulFindSetArg.exit.loopexit.us ], [ 0, %Vec_WrdStart.exit ]
  br i1 %18, label %.lr.ph.i.us, label %.critedge.i.us

.lr.ph.i.us:                                      ; preds = %Vec_WrdStart.exit.split.us
  %.val.i.us = load ptr, ptr %21, align 8, !tbaa !137
  %25 = shl nuw i64 1, %indvars.iv
  br label %26

26:                                               ; preds = %26, %.lr.ph.i.us
  %indvars.iv.i.us = phi i64 [ 0, %.lr.ph.i.us ], [ %indvars.iv.next.i.us, %26 ]
  %.01421.i.us = phi i32 [ 0, %.lr.ph.i.us ], [ %.1.i.us, %26 ]
  %27 = getelementptr inbounds nuw i64, ptr %.val.i.us, i64 %indvars.iv.i.us
  %28 = load i64, ptr %27, align 8, !tbaa !138
  %29 = and i64 %28, %25
  %.not17.i.us = icmp eq i64 %29, 0
  %30 = trunc nuw nsw i64 %indvars.iv.i.us to i32
  %31 = shl nuw i32 1, %30
  %32 = select i1 %.not17.i.us, i32 0, i32 %31
  %.1.i.us = or i32 %32, %.01421.i.us
  %indvars.iv.next.i.us = add nuw nsw i64 %indvars.iv.i.us, 1
  %exitcond.not.i.us = icmp eq i64 %indvars.iv.next.i.us, %wide.trip.count.i
  br i1 %exitcond.not.i.us, label %.critedge.i.us, label %26, !llvm.loop !143

.critedge.i.us:                                   ; preds = %26, %Vec_WrdStart.exit.split.us
  %.014.lcssa.i.us = phi i32 [ 0, %Vec_WrdStart.exit.split.us ], [ %.1.i.us, %26 ]
  %.0.lcssa.i.us = phi i64 [ 0, %Vec_WrdStart.exit.split.us ], [ %28, %26 ]
  br i1 %.not.i, label %Gia_ManMulFindGetArg.exit.us, label %33

33:                                               ; preds = %.critedge.i.us
  %34 = shl nuw i64 1, %indvars.iv
  %35 = and i64 %.0.lcssa.i.us, %34
  %.not16.i.us = icmp eq i64 %35, 0
  %36 = select i1 %.not16.i.us, i32 0, i32 %22
  %spec.select = or i32 %.014.lcssa.i.us, %36
  br label %Gia_ManMulFindGetArg.exit.us

Gia_ManMulFindGetArg.exit.us:                     ; preds = %33, %.critedge.i.us
  %.2.i.us = phi i32 [ %.014.lcssa.i.us, %.critedge.i.us ], [ %spec.select, %33 ]
  br i1 %19, label %.lr.ph.i22.us, label %.critedge.i16.us

.lr.ph.i22.us:                                    ; preds = %Gia_ManMulFindGetArg.exit.us
  %.val.i23.us = load ptr, ptr %23, align 8, !tbaa !137
  %37 = shl nuw i64 1, %indvars.iv
  br label %38

38:                                               ; preds = %38, %.lr.ph.i22.us
  %indvars.iv.i25.us = phi i64 [ 0, %.lr.ph.i22.us ], [ %indvars.iv.next.i29.us, %38 ]
  %.01421.i26.us = phi i32 [ 0, %.lr.ph.i22.us ], [ %.1.i28.us, %38 ]
  %39 = getelementptr inbounds nuw i64, ptr %.val.i23.us, i64 %indvars.iv.i25.us
  %40 = load i64, ptr %39, align 8, !tbaa !138
  %41 = and i64 %40, %37
  %.not17.i27.us = icmp eq i64 %41, 0
  %42 = trunc nuw nsw i64 %indvars.iv.i25.us to i32
  %43 = shl nuw i32 1, %42
  %44 = select i1 %.not17.i27.us, i32 0, i32 %43
  %.1.i28.us = or i32 %44, %.01421.i26.us
  %indvars.iv.next.i29.us = add nuw nsw i64 %indvars.iv.i25.us, 1
  %exitcond.not.i30.us = icmp eq i64 %indvars.iv.next.i29.us, %wide.trip.count.i24
  br i1 %exitcond.not.i30.us, label %.critedge.i16.us, label %38, !llvm.loop !143

.critedge.i16.us:                                 ; preds = %38, %Gia_ManMulFindGetArg.exit.us
  %.014.lcssa.i17.us = phi i32 [ 0, %Gia_ManMulFindGetArg.exit.us ], [ %.1.i28.us, %38 ]
  %.0.lcssa.i18.us = phi i64 [ 0, %Gia_ManMulFindGetArg.exit.us ], [ %40, %38 ]
  %.pre = shl nuw i64 1, %indvars.iv
  %45 = and i64 %.0.lcssa.i18.us, %.pre
  %.not16.i20.us = icmp eq i64 %45, 0
  %46 = select i1 %.not.i, i1 true, i1 %.not16.i20.us
  %spec.select91 = select i1 %46, i32 0, i32 %24
  %.2.i21.us = or i32 %.014.lcssa.i17.us, %spec.select91
  %47 = mul nsw i32 %.2.i21.us, %.2.i.us
  br label %48

48:                                               ; preds = %56, %.critedge.i16.us
  %indvars.iv.i35.us = phi i64 [ 0, %.critedge.i16.us ], [ %indvars.iv.next.i37.us, %56 ]
  %49 = trunc nuw nsw i64 %indvars.iv.i35.us to i32
  %50 = shl nuw i32 1, %49
  %51 = and i32 %50, %47
  %.not.i36.us = icmp eq i32 %51, 0
  br i1 %.not.i36.us, label %56, label %52

52:                                               ; preds = %48
  %53 = getelementptr inbounds nuw i64, ptr %13, i64 %indvars.iv.i35.us
  %54 = load i64, ptr %53, align 8, !tbaa !138
  %55 = or i64 %54, %.pre
  store i64 %55, ptr %53, align 8, !tbaa !138
  br label %56

56:                                               ; preds = %52, %48
  %indvars.iv.next.i37.us = add nuw nsw i64 %indvars.iv.i35.us, 1
  %exitcond.not.i38.us = icmp eq i64 %indvars.iv.next.i37.us, %wide.trip.count.i34
  br i1 %exitcond.not.i38.us, label %Gia_ManMulFindSetArg.exit.loopexit.us, label %48, !llvm.loop !144

Gia_ManMulFindSetArg.exit.loopexit.us:            ; preds = %56
  %indvars.iv.next = add nuw nsw i64 %indvars.iv, 1
  %exitcond.not = icmp eq i64 %indvars.iv.next, 64
  br i1 %exitcond.not, label %.split.us, label %Vec_WrdStart.exit.split.us, !llvm.loop !145

.split.us:                                        ; preds = %Gia_ManMulFindSetArg.exit.loopexit.us, %Vec_WrdStart.exit
  ret ptr %7
}